; Function Attrs: mustprogress uwtable
define hidden void @_ZNK19OpenColorIO_v2_5dev26FixedFunctionTransformImpl8validateEv(ptr noundef nonnull align 8 dereferenceable(208) %0) unnamed_addr #0 align 2 personality ptr @__gxx_personality_v0 {
  %2 = alloca %"class.std::__cxx11::basic_string", align 8
  %3 = alloca %"class.std::allocator", align 1
  invoke void @_ZNK19OpenColorIO_v2_5dev9Transform8validateEv(ptr noundef nonnull align 8 dereferenceable(8) %0)
          to label %4 unwind label %9

4:                                                ; preds = %1
  %5 = getelementptr inbounds nuw i8, ptr %0, i64 8
  %6 = load ptr, ptr %5, align 8, !tbaa !3
  %7 = getelementptr inbounds nuw i8, ptr %6, i64 16
  %8 = load ptr, ptr %7, align 8
  invoke void %8(ptr noundef nonnull align 8 dereferenceable(200) %5)
          to label %42 unwind label %9

9:                                                ; preds = %4, %1
  %10 = landingpad { ptr, i32 }
          catch ptr @_ZTIN19OpenColorIO_v2_5dev9ExceptionE
  %11 = extractvalue { ptr, i32 } %10, 1
  %12 = tail call i32 @llvm.eh.typeid.for.p0(ptr nonnull @_ZTIN19OpenColorIO_v2_5dev9ExceptionE) #21
  %13 = icmp eq i32 %11, %12
  br i1 %13, label %14, label %43

14:                                               ; preds = %9
  %15 = extractvalue { ptr, i32 } %10, 0
  %16 = tail call ptr @__cxa_begin_catch(ptr %15) #21
  call void @llvm.lifetime.start.p0(i64 32, ptr nonnull %2) #21
  call void @llvm.lifetime.start.p0(i64 1, ptr nonnull %3) #21
  invoke void @_ZNSt7__cxx1112basic_stringIcSt11char_traitsIcESaIcEEC2EPKcRKS3_(ptr noundef nonnull align 8 dereferenceable(32) %2, ptr noundef nonnull @.str, ptr noundef nonnull align 1 dereferenceable(1) %3)
          to label %17 unwind label %27

17:                                               ; preds = %14
  call void @llvm.lifetime.end.p0(i64 1, ptr nonnull %3) #21
  %18 = load ptr, ptr %16, align 8, !tbaa !3
  %19 = getelementptr inbounds nuw i8, ptr %18, i64 16
  %20 = load ptr, ptr %19, align 8
  %21 = call noundef ptr %20(ptr noundef nonnull align 8 dereferenceable(16) %16) #21
  %22 = invoke noundef nonnull align 8 dereferenceable(32) ptr @_ZNSt7__cxx1112basic_stringIcSt11char_traitsIcESaIcEEpLEPKc(ptr noundef nonnull align 8 dereferenceable(32) %2, ptr noundef %21)
          to label %23 unwind label %29

23:                                               ; preds = %17
  %24 = call ptr @__cxa_allocate_exception(i64 16) #21
  %25 = load ptr, ptr %2, align 8, !tbaa !58
  invoke void @_ZN19OpenColorIO_v2_5dev9ExceptionC1EPKc(ptr noundef nonnull align 8 dereferenceable(16) %24, ptr noundef %25)
          to label %26 unwind label %31

26:                                               ; preds = %23
  invoke void @__cxa_throw(ptr nonnull %24, ptr nonnull @_ZTIN19OpenColorIO_v2_5dev9ExceptionE, ptr nonnull @_ZN19OpenColorIO_v2_5dev9ExceptionD1Ev) #22
          to label %47 unwind label %29

27:                                               ; preds = %14
  %28 = landingpad { ptr, i32 }
          cleanup
  call void @llvm.lifetime.end.p0(i64 1, ptr nonnull %3) #21
  br label %_ZNSt7__cxx1112basic_stringIcSt11char_traitsIcESaIcEED2Ev.exit

29:                                               ; preds = %26, %17
  %30 = landingpad { ptr, i32 }
          cleanup
  br label %33

31:                                               ; preds = %23
  %32 = landingpad { ptr, i32 }
          cleanup
  call void @__cxa_free_exception(ptr nonnull %24) #21
  br label %33

33:                                               ; preds = %31, %29
  %.pn = phi { ptr, i32 } [ %30, %29 ], [ %32, %31 ]
  %34 = load ptr, ptr %2, align 8, !tbaa !58
  %35 = getelementptr inbounds nuw i8, ptr %2, i64 16
  %36 = icmp eq ptr %34, %35
  br i1 %36, label %_ZNKSt7__cxx1112basic_stringIcSt11char_traitsIcESaIcEE11_M_is_localEv.exit.thread.i.i, label %_ZNKSt7__cxx1112basic_stringIcSt11char_traitsIcESaIcEE11_M_is_localEv.exit.i.i

_ZNKSt7__cxx1112basic_stringIcSt11char_traitsIcESaIcEE11_M_is_localEv.exit.thread.i.i: ; preds = %33
  %37 = getelementptr inbounds nuw i8, ptr %2, i64 8
  %38 = load i64, ptr %37, align 8, !tbaa !59
  %39 = icmp ult i64 %38, 16
  call void @llvm.assume(i1 %39)
  br label %_ZNSt7__cxx1112basic_stringIcSt11char_traitsIcESaIcEED2Ev.exit

_ZNKSt7__cxx1112basic_stringIcSt11char_traitsIcESaIcEE11_M_is_localEv.exit.i.i: ; preds = %33
  %40 = load i64, ptr %35, align 8, !tbaa !60
  %41 = add i64 %40, 1
  call void @_ZdlPvm(ptr noundef %34, i64 noundef %41) #24
  br label %_ZNSt7__cxx1112basic_stringIcSt11char_traitsIcESaIcEED2Ev.exit

_ZNSt7__cxx1112basic_stringIcSt11char_traitsIcESaIcEED2Ev.exit: ; preds = %_ZNKSt7__cxx1112basic_stringIcSt11char_traitsIcESaIcEE11_M_is_localEv.exit.i.i, %_ZNKSt7__cxx1112basic_stringIcSt11char_traitsIcESaIcEE11_M_is_localEv.exit.thread.i.i, %27
  %.pn.pn = phi { ptr, i32 } [ %28, %27 ], [ %.pn, %_ZNKSt7__cxx1112basic_stringIcSt11char_traitsIcESaIcEE11_M_is_localEv.exit.thread.i.i ], [ %.pn, %_ZNKSt7__cxx1112basic_stringIcSt11char_traitsIcESaIcEE11_M_is_localEv.exit.i.i ]
  call void @llvm.lifetime.end.p0(i64 32, ptr nonnull %2) #21
  invoke void @__cxa_end_catch()
          to label %43 unwind label %44

42:                                               ; preds = %4
  ret void

43:                                               ; preds = %_ZNSt7__cxx1112basic_stringIcSt11char_traitsIcESaIcEED2Ev.exit, %9
  %.merged = phi { ptr, i32 } [ %10, %9 ], [ %.pn.pn, %_ZNSt7__cxx1112basic_stringIcSt11char_traitsIcESaIcEED2Ev.exit ]
  resume { ptr, i32 } %.merged

44:                                               ; preds = %_ZNSt7__cxx1112basic_stringIcSt11char_traitsIcESaIcEED2Ev.exit
  %45 = landingpad { ptr, i32 }
          catch ptr null
  %46 = extractvalue { ptr, i32 } %45, 0
  call void @__clang_call_terminate(ptr %46) #23
  unreachable

47:                                               ; preds = %26
  unreachable
}